#include <math.h>
#include <stdio.h>
#include <stdlib.h>
#include <string.h>
#include <iostream>
using namespace std;

int main()
{
	int a[16] = {0}, i = 1, num[16] = {0}, s, k = 0;
		while (cin >> s)
		{
			a[i] = s;
			if (a[i] == 0) {i = 0; k++; continue;}
			if (a[i] == -1) break;
			for (int j = 0 ; j <= i ; j++)
			{
				if (a[i] == 2 * a[j] || a[j] == 2 * a[i])
					num[k]++;
			}
		    i++;
		}
		for (i = 0 ; i < k ; i++)
		{
			cout << num[i] <<endl;
		}
	return 0;
}