; ModuleID = 'source-C-CXX/11/696.cpp'
source_filename = "source-C-CXX/11/696.cpp"
target datalayout = "e-m:e-p270:32:32-p271:32:32-p272:64:64-i64:64-f80:128-n8:16:32:64-S128"
target triple = "x86_64-pc-linux-gnu"

%"class.std::ios_base::Init" = type { i8 }
%"class.std::basic_istream" = type { i32 (...)**, i64, %"class.std::basic_ios" }
%"class.std::basic_ios" = type { %"class.std::ios_base", %"class.std::basic_ostream"*, i8, i8, %"class.std::basic_streambuf"*, %"class.std::ctype"*, %"class.std::num_put"*, %"class.std::num_get"* }
%"class.std::ios_base" = type { i32 (...)**, i64, i64, i32, i32, i32, %"struct.std::ios_base::_Callback_list"*, %"struct.std::ios_base::_Words", [8 x %"struct.std::ios_base::_Words"], i32, %"struct.std::ios_base::_Words"*, %"class.std::locale" }
%"struct.std::ios_base::_Callback_list" = type { %"struct.std::ios_base::_Callback_list"*, void (i32, %"class.std::ios_base"*, i32)*, i32, i32 }
%"struct.std::ios_base::_Words" = type { i8*, i64 }
%"class.std::locale" = type { %"class.std::locale::_Impl"* }
%"class.std::locale::_Impl" = type { i32, %"class.std::locale::facet"**, i64, %"class.std::locale::facet"**, i8** }
%"class.std::locale::facet" = type <{ i32 (...)**, i32, [4 x i8] }>
%"class.std::basic_ostream" = type { i32 (...)**, %"class.std::basic_ios" }
%"class.std::basic_streambuf" = type { i32 (...)**, i8*, i8*, i8*, i8*, i8*, i8*, %"class.std::locale" }
%"class.std::ctype" = type <{ %"class.std::locale::facet.base", [4 x i8], %struct.__locale_struct*, i8, [7 x i8], i32*, i32*, i16*, i8, [256 x i8], [256 x i8], i8, [6 x i8] }>
%"class.std::locale::facet.base" = type <{ i32 (...)**, i32 }>
%struct.__locale_struct = type { [13 x %struct.__locale_data*], i16*, i32*, i32*, [13 x i8*] }
%struct.__locale_data = type opaque
%"class.std::num_put" = type { %"class.std::locale::facet.base", [4 x i8] }
%"class.std::num_get" = type { %"class.std::locale::facet.base", [4 x i8] }

@_ZStL8__ioinit = internal global %"class.std::ios_base::Init" zeroinitializer, align 1
@__dso_handle = external hidden global i8
@_ZSt3cin = external global %"class.std::basic_istream", align 8
@_ZSt4cout = external global %"class.std::basic_ostream", align 8
@llvm.global_ctors = appending global [1 x { i32, void ()*, i8* }] [{ i32, void ()*, i8* } { i32 65535, void ()* @_GLOBAL__sub_I_696.cpp, i8* null }]

declare void @_ZNSt8ios_base4InitC1Ev(%"class.std::ios_base::Init"* nonnull align 1 dereferenceable(1)) unnamed_addr #0

; Function Attrs: nounwind
declare void @_ZNSt8ios_base4InitD1Ev(%"class.std::ios_base::Init"* nonnull align 1 dereferenceable(1)) unnamed_addr #1

; Function Attrs: nofree nounwind
declare i32 @__cxa_atexit(void (i8*)*, i8*, i8*) local_unnamed_addr #2

; Function Attrs: mustprogress norecurse sspstrong uwtable
define dso_local i32 @main() local_unnamed_addr #3 {
  %1 = alloca [16 x i32], align 16
  %2 = alloca [16 x i32], align 16
  %3 = alloca i32, align 4
  %4 = bitcast [16 x i32]* %1 to i8*
  call void @llvm.lifetime.start.p0i8(i64 64, i8* nonnull %4) #8
  call void @llvm.memset.p0i8.i64(i8* noundef nonnull align 16 dereferenceable(64) %4, i8 0, i64 64, i1 false)
  %5 = bitcast [16 x i32]* %2 to i8*
  call void @llvm.lifetime.start.p0i8(i64 64, i8* nonnull %5) #8
  call void @llvm.memset.p0i8.i64(i8* noundef nonnull align 16 dereferenceable(64) %5, i8 0, i64 64, i1 false)
  %6 = bitcast i32* %3 to i8*
  call void @llvm.lifetime.start.p0i8(i64 4, i8* nonnull %6) #8
  %7 = call nonnull align 8 dereferenceable(16) %"class.std::basic_istream"* @_ZNSirsERi(%"class.std::basic_istream"* nonnull align 8 dereferenceable(16) @_ZSt3cin, i32* nonnull align 4 dereferenceable(4) %3)
  %8 = bitcast %"class.std::basic_istream"* %7 to i8**
  %9 = load i8*, i8** %8, align 8, !tbaa !5
  %10 = getelementptr i8, i8* %9, i64 -24
  %11 = bitcast i8* %10 to i64*
  %12 = load i64, i64* %11, align 8
  %13 = bitcast %"class.std::basic_istream"* %7 to i8*
  %14 = add nsw i64 %12, 32
  %15 = getelementptr inbounds i8, i8* %13, i64 %14
  %16 = bitcast i8* %15 to i32*
  %17 = load i32, i32* %16, align 8, !tbaa !8
  %18 = and i32 %17, 5
  %19 = icmp eq i32 %18, 0
  br i1 %19, label %20, label %147

20:                                               ; preds = %0
  %21 = getelementptr inbounds [16 x i32], [16 x i32]* %2, i64 0, i64 0
  br label %22

22:                                               ; preds = %20, %40
  %23 = phi i64 [ 0, %20 ], [ %41, %40 ]
  %24 = phi i32* [ %21, %20 ], [ %42, %40 ]
  %25 = phi i64 [ 1, %20 ], [ 0, %40 ]
  %26 = add nuw nsw i64 %25, 1
  br label %27

27:                                               ; preds = %22, %69
  %28 = phi i64 [ 0, %22 ], [ %84, %69 ]
  %29 = phi i64 [ %25, %22 ], [ %70, %69 ]
  %30 = add i64 %26, %28
  %31 = load i32, i32* %3, align 4, !tbaa !18
  %32 = getelementptr inbounds [16 x i32], [16 x i32]* %1, i64 0, i64 %29
  store i32 %31, i32* %32, align 4, !tbaa !18
  switch i32 %31, label %33 [
    i32 0, label %40
    i32 -1, label %105
  ]

33:                                               ; preds = %27
  %34 = shl nsw i32 %31, 1
  %35 = and i64 %30, 1
  %36 = sub i64 0, %28
  %37 = icmp eq i64 %25, %36
  br i1 %37, label %56, label %38

38:                                               ; preds = %33
  %39 = and i64 %30, -2
  br label %85

40:                                               ; preds = %27
  %41 = add nuw i64 %23, 1
  %42 = getelementptr inbounds [16 x i32], [16 x i32]* %2, i64 0, i64 %41
  %43 = call nonnull align 8 dereferenceable(16) %"class.std::basic_istream"* @_ZNSirsERi(%"class.std::basic_istream"* nonnull align 8 dereferenceable(16) @_ZSt3cin, i32* nonnull align 4 dereferenceable(4) %3)
  %44 = bitcast %"class.std::basic_istream"* %43 to i8**
  %45 = load i8*, i8** %44, align 8, !tbaa !5
  %46 = getelementptr i8, i8* %45, i64 -24
  %47 = bitcast i8* %46 to i64*
  %48 = load i64, i64* %47, align 8
  %49 = bitcast %"class.std::basic_istream"* %43 to i8*
  %50 = add nsw i64 %48, 32
  %51 = getelementptr inbounds i8, i8* %49, i64 %50
  %52 = bitcast i8* %51 to i32*
  %53 = load i32, i32* %52, align 8, !tbaa !8
  %54 = and i32 %53, 5
  %55 = icmp eq i32 %54, 0
  br i1 %55, label %22, label %105, !llvm.loop !19

56:                                               ; preds = %151, %33
  %57 = phi i64 [ 0, %33 ], [ %152, %151 ]
  %58 = icmp eq i64 %35, 0
  br i1 %58, label %69, label %59

59:                                               ; preds = %56
  %60 = getelementptr inbounds [16 x i32], [16 x i32]* %1, i64 0, i64 %57
  %61 = load i32, i32* %60, align 4, !tbaa !18
  %62 = shl nsw i32 %61, 1
  %63 = icmp eq i32 %31, %62
  %64 = icmp eq i32 %61, %34
  %65 = select i1 %63, i1 true, i1 %64
  br i1 %65, label %66, label %69

66:                                               ; preds = %59
  %67 = load i32, i32* %24, align 4, !tbaa !18
  %68 = add nsw i32 %67, 1
  store i32 %68, i32* %24, align 4, !tbaa !18
  br label %69

69:                                               ; preds = %66, %59, %56
  %70 = add nuw i64 %29, 1
  %71 = call nonnull align 8 dereferenceable(16) %"class.std::basic_istream"* @_ZNSirsERi(%"class.std::basic_istream"* nonnull align 8 dereferenceable(16) @_ZSt3cin, i32* nonnull align 4 dereferenceable(4) %3)
  %72 = bitcast %"class.std::basic_istream"* %71 to i8**
  %73 = load i8*, i8** %72, align 8, !tbaa !5
  %74 = getelementptr i8, i8* %73, i64 -24
  %75 = bitcast i8* %74 to i64*
  %76 = load i64, i64* %75, align 8
  %77 = bitcast %"class.std::basic_istream"* %71 to i8*
  %78 = add nsw i64 %76, 32
  %79 = getelementptr inbounds i8, i8* %77, i64 %78
  %80 = bitcast i8* %79 to i32*
  %81 = load i32, i32* %80, align 8, !tbaa !8
  %82 = and i32 %81, 5
  %83 = icmp eq i32 %82, 0
  %84 = add i64 %28, 1
  br i1 %83, label %27, label %105, !llvm.loop !19

85:                                               ; preds = %151, %38
  %86 = phi i64 [ 0, %38 ], [ %152, %151 ]
  %87 = phi i64 [ %39, %38 ], [ %153, %151 ]
  %88 = getelementptr inbounds [16 x i32], [16 x i32]* %1, i64 0, i64 %86
  %89 = load i32, i32* %88, align 8, !tbaa !18
  %90 = shl nsw i32 %89, 1
  %91 = icmp eq i32 %31, %90
  %92 = icmp eq i32 %89, %34
  %93 = select i1 %91, i1 true, i1 %92
  br i1 %93, label %94, label %97

94:                                               ; preds = %85
  %95 = load i32, i32* %24, align 4, !tbaa !18
  %96 = add nsw i32 %95, 1
  store i32 %96, i32* %24, align 4, !tbaa !18
  br label %97

97:                                               ; preds = %85, %94
  %98 = or i64 %86, 1
  %99 = getelementptr inbounds [16 x i32], [16 x i32]* %1, i64 0, i64 %98
  %100 = load i32, i32* %99, align 4, !tbaa !18
  %101 = shl nsw i32 %100, 1
  %102 = icmp eq i32 %31, %101
  %103 = icmp eq i32 %100, %34
  %104 = select i1 %102, i1 true, i1 %103
  br i1 %104, label %148, label %151

105:                                              ; preds = %40, %69, %27
  %106 = phi i64 [ %23, %27 ], [ %23, %69 ], [ %41, %40 ]
  %107 = trunc i64 %106 to i32
  %108 = icmp sgt i32 %107, 0
  br i1 %108, label %109, label %147

109:                                              ; preds = %105
  %110 = and i64 %106, 4294967295
  br label %111

111:                                              ; preds = %109, %141
  %112 = phi i64 [ 0, %109 ], [ %145, %141 ]
  %113 = getelementptr inbounds [16 x i32], [16 x i32]* %2, i64 0, i64 %112
  %114 = load i32, i32* %113, align 4, !tbaa !18
  %115 = call nonnull align 8 dereferenceable(8) %"class.std::basic_ostream"* @_ZNSolsEi(%"class.std::basic_ostream"* nonnull align 8 dereferenceable(8) @_ZSt4cout, i32 %114)
  %116 = bitcast %"class.std::basic_ostream"* %115 to i8**
  %117 = load i8*, i8** %116, align 8, !tbaa !5
  %118 = getelementptr i8, i8* %117, i64 -24
  %119 = bitcast i8* %118 to i64*
  %120 = load i64, i64* %119, align 8
  %121 = bitcast %"class.std::basic_ostream"* %115 to i8*
  %122 = add nsw i64 %120, 240
  %123 = getelementptr inbounds i8, i8* %121, i64 %122
  %124 = bitcast i8* %123 to %"class.std::ctype"**
  %125 = load %"class.std::ctype"*, %"class.std::ctype"** %124, align 8, !tbaa !21
  %126 = icmp eq %"class.std::ctype"* %125, null
  br i1 %126, label %127, label %128

127:                                              ; preds = %111
  call void @_ZSt16__throw_bad_castv() #9
  unreachable

128:                                              ; preds = %111
  %129 = getelementptr inbounds %"class.std::ctype", %"class.std::ctype"* %125, i64 0, i32 8
  %130 = load i8, i8* %129, align 8, !tbaa !24
  %131 = icmp eq i8 %130, 0
  br i1 %131, label %135, label %132

132:                                              ; preds = %128
  %133 = getelementptr inbounds %"class.std::ctype", %"class.std::ctype"* %125, i64 0, i32 9, i64 10
  %134 = load i8, i8* %133, align 1, !tbaa !26
  br label %141

135:                                              ; preds = %128
  call void @_ZNKSt5ctypeIcE13_M_widen_initEv(%"class.std::ctype"* nonnull align 8 dereferenceable(570) %125)
  %136 = bitcast %"class.std::ctype"* %125 to i8 (%"class.std::ctype"*, i8)***
  %137 = load i8 (%"class.std::ctype"*, i8)**, i8 (%"class.std::ctype"*, i8)*** %136, align 8, !tbaa !5
  %138 = getelementptr inbounds i8 (%"class.std::ctype"*, i8)*, i8 (%"class.std::ctype"*, i8)** %137, i64 6
  %139 = load i8 (%"class.std::ctype"*, i8)*, i8 (%"class.std::ctype"*, i8)** %138, align 8
  %140 = call signext i8 %139(%"class.std::ctype"* nonnull align 8 dereferenceable(570) %125, i8 signext 10)
  br label %141

141:                                              ; preds = %132, %135
  %142 = phi i8 [ %134, %132 ], [ %140, %135 ]
  %143 = call nonnull align 8 dereferenceable(8) %"class.std::basic_ostream"* @_ZNSo3putEc(%"class.std::basic_ostream"* nonnull align 8 dereferenceable(8) %115, i8 signext %142)
  %144 = call nonnull align 8 dereferenceable(8) %"class.std::basic_ostream"* @_ZNSo5flushEv(%"class.std::basic_ostream"* nonnull align 8 dereferenceable(8) %143)
  %145 = add nuw nsw i64 %112, 1
  %146 = icmp eq i64 %145, %110
  br i1 %146, label %147, label %111, !llvm.loop !27

147:                                              ; preds = %141, %0, %105
  call void @llvm.lifetime.end.p0i8(i64 4, i8* nonnull %6) #8
  call void @llvm.lifetime.end.p0i8(i64 64, i8* nonnull %5) #8
  call void @llvm.lifetime.end.p0i8(i64 64, i8* nonnull %4) #8
  ret i32 0

148:                                              ; preds = %97
  %149 = load i32, i32* %24, align 4, !tbaa !18
  %150 = add nsw i32 %149, 1
  store i32 %150, i32* %24, align 4, !tbaa !18
  br label %151

151:                                              ; preds = %148, %97
  %152 = add nuw nsw i64 %86, 2
  %153 = add i64 %87, -2
  %154 = icmp eq i64 %153, 0
  br i1 %154, label %56, label %85, !llvm.loop !28
}

; Function Attrs: argmemonly mustprogress nofree nosync nounwind willreturn
declare void @llvm.lifetime.start.p0i8(i64 immarg, i8* nocapture) #4

; Function Attrs: argmemonly mustprogress nofree nounwind willreturn writeonly
declare void @llvm.memset.p0i8.i64(i8* nocapture writeonly, i8, i64, i1 immarg) #5

declare nonnull align 8 dereferenceable(16) %"class.std::basic_istream"* @_ZNSirsERi(%"class.std::basic_istream"* nonnull align 8 dereferenceable(16), i32* nonnull align 4 dereferenceable(4)) local_unnamed_addr #0

; Function Attrs: argmemonly mustprogress nofree nosync nounwind willreturn
declare void @llvm.lifetime.end.p0i8(i64 immarg, i8* nocapture) #4

declare nonnull align 8 dereferenceable(8) %"class.std::basic_ostream"* @_ZNSolsEi(%"class.std::basic_ostream"* nonnull align 8 dereferenceable(8), i32) local_unnamed_addr #0

declare nonnull align 8 dereferenceable(8) %"class.std::basic_ostream"* @_ZNSo3putEc(%"class.std::basic_ostream"* nonnull align 8 dereferenceable(8), i8 signext) local_unnamed_addr #0

declare nonnull align 8 dereferenceable(8) %"class.std::basic_ostream"* @_ZNSo5flushEv(%"class.std::basic_ostream"* nonnull align 8 dereferenceable(8)) local_unnamed_addr #0

; Function Attrs: noreturn
declare void @_ZSt16__throw_bad_castv() local_unnamed_addr #6

declare void @_ZNKSt5ctypeIcE13_M_widen_initEv(%"class.std::ctype"* nonnull align 8 dereferenceable(570)) local_unnamed_addr #0

; Function Attrs: sspstrong uwtable
define internal void @_GLOBAL__sub_I_696.cpp() #7 section ".text.startup" {
  tail call void @_ZNSt8ios_base4InitC1Ev(%"class.std::ios_base::Init"* nonnull align 1 dereferenceable(1) @_ZStL8__ioinit)
  %1 = tail call i32 @__cxa_atexit(void (i8*)* bitcast (void (%"class.std::ios_base::Init"*)* @_ZNSt8ios_base4InitD1Ev to void (i8*)*), i8* getelementptr inbounds (%"class.std::ios_base::Init", %"class.std::ios_base::Init"* @_ZStL8__ioinit, i64 0, i32 0), i8* nonnull @__dso_handle) #8
  ret void
}


!llvm.module.flags = !{!0, !1, !2, !3}
!llvm.ident = !{!4}

!0 = !{i32 1, !"wchar_size", i32 4}
!1 = !{i32 7, !"PIC Level", i32 2}
!2 = !{i32 7, !"PIE Level", i32 2}
!3 = !{i32 7, !"uwtable", i32 1}
!4 = !{!"clang version 13.0.0"}
!5 = !{!6, !6, i64 0}
!6 = !{!"vtable pointer", !7, i64 0}
!7 = !{!"Simple C++ TBAA"}
!8 = !{!9, !13, i64 32}
!9 = !{!"_ZTSSt8ios_base", !10, i64 8, !10, i64 16, !12, i64 24, !13, i64 28, !13, i64 32, !14, i64 40, !15, i64 48, !11, i64 64, !16, i64 192, !14, i64 200, !17, i64 208}
!10 = !{!"long", !11, i64 0}
!11 = !{!"omnipotent char", !7, i64 0}
!12 = !{!"_ZTSSt13_Ios_Fmtflags", !11, i64 0}
!13 = !{!"_ZTSSt12_Ios_Iostate", !11, i64 0}
!14 = !{!"any pointer", !11, i64 0}
!15 = !{!"_ZTSNSt8ios_base6_WordsE", !14, i64 0, !10, i64 8}
!16 = !{!"int", !11, i64 0}
!17 = !{!"_ZTSSt6locale", !14, i64 0}
!18 = !{!16, !16, i64 0}
!19 = distinct !{!19, !20}
!20 = !{!"llvm.loop.mustprogress"}
!21 = !{!22, !14, i64 240}
!22 = !{!"_ZTSSt9basic_iosIcSt11char_traitsIcEE", !14, i64 216, !11, i64 224, !23, i64 225, !14, i64 232, !14, i64 240, !14, i64 248, !14, i64 256}
!23 = !{!"bool", !11, i64 0}
!24 = !{!25, !11, i64 56}
!25 = !{!"_ZTSSt5ctypeIcE", !14, i64 16, !23, i64 24, !14, i64 32, !14, i64 40, !14, i64 48, !11, i64 56, !11, i64 57, !11, i64 313, !11, i64 569}
!26 = !{!11, !11, i64 0}
!27 = distinct !{!27, !20}
!28 = distinct !{!28, !20}
